ccopy_reg
_reconstructor
p0
(c__main__
Board
p1
c__builtin__
object
p2
Ntp3
Rp4
(dp5
S'node'
p6
(dp7
S'Brazil'
p8
(dp9
sS'Afghanistan'
p10
(dp11
sS'Madagascar'
p12
(dp13
sS'Ontario'
p14
(dp15
sS'Eastern United States'
p16
(dp17
sS'Southern Europe'
p18
(dp19
sS'Mongolia'
p20
(dp21
sS'Great Britain'
p22
(dp23
sS'Middle East'
p24
(dp25
sS'Peru'
p26
(dp27
sS'Alberta'
p28
(dp29
sS'Argentina'
p30
(dp31
sS'Venezuela'
p32
(dp33
sS'Central Africa'
p34
(dp35
sS'Northwestern Territory'
p36
(dp37
sS'Northern Europe'
p38
(dp39
sS'Iceland'
p40
(dp41
sS'Irkutsk'
p42
(dp43
sS'China'
p44
(dp45
sS'Western United States'
p46
(dp47
sS'Ural'
p48
(dp49
sS'North Africa'
p50
(dp51
sS'Siberia'
p52
(dp53
sS'Indonesia'
p54
(dp55
sS'Scandinavia'
p56
(dp57
sS'Eastern Canada'
p58
(dp59
sS'Yakutsk'
p60
(dp61
sS'Alaska'
p62
(dp63
sS'Southern Asia'
p64
(dp65
sS'Russia'
p66
(dp67
sS'New Guinea'
p68
(dp69
sS'Greenland'
p70
(dp71
sS'East Africa'
p72
(dp73
sS'Western Australia'
p74
(dp75
sS'Kamatchka'
p76
(dp77
sS'South Africa'
p78
(dp79
sS'Central America'
p80
(dp81
sS'India'
p82
(dp83
sS'Egypt'
p84
(dp85
sS'Japan'
p86
(dp87
sS'Western Europe'
p88
(dp89
sS'Eastern Australia'
p90
(dp91
ssS'node_dict_factory'
p92
c__builtin__
dict
p93
sS'edge_attr_dict_factory'
p94
g93
sS'edge'
p95
(dp96
g8
(dp97
g30
(dp98
S'weight'
p99
I11
ssg32
(dp100
g99
I11
ssg50
(dp101
sg26
(dp102
g99
I11
sssg10
(dp103
g76
(dp104
g99
I11
ssg42
(dp105
g99
I11
ssg60
(dp106
g99
I11
ssg82
(dp107
g99
I11
ssg20
(dp108
g99
I11
ssg44
(dp109
g99
I11
ssS'Middle East'
p110
(dp111
g99
I11
ssg86
(dp112
g99
I11
ssg48
(dp113
g99
I11
ssS'Southern Asia'
p114
(dp115
g99
I11
ssg66
(dp116
sg52
(dp117
g99
I11
sssg12
(dp118
g84
(dp119
g99
I11
ssS'Central Africa'
p120
(dp121
g99
I11
ssg72
(dp122
g99
I11
ssS'North Africa'
p123
(dp124
g99
I11
ssg78
(dp125
g99
I11
sssg14
(dp126
g70
(dp127
g99
I11
ssg36
(dp128
g99
I11
ssg58
(dp129
g99
I11
ssg62
(dp130
g99
I11
ssg16
(dp131
g99
I11
ssS'Central America'
p132
(dp133
g99
I11
ssg46
(dp134
g99
I11
ssg28
(dp135
g99
I11
sssg16
(dp136
g14
g131
sS'Northwestern Territory'
p137
(dp138
g99
I11
ssg58
(dp139
g99
I11
ssg62
(dp140
g99
I11
ssg80
(dp141
g99
I11
ssg70
(dp142
g99
I11
ssg46
(dp143
g99
I11
ssg28
(dp144
g99
I11
sssg18
(dp145
g56
(dp146
g99
I11
ssg38
(dp147
g99
I11
ssg40
(dp148
g99
I11
ssS'Great Britain'
p149
(dp150
g99
I11
ssg110
(dp151
sg88
(dp152
g99
I11
ssg66
(dp153
g99
I11
sssg20
(dp154
g10
g108
sg76
(dp155
g99
I11
ssg42
(dp156
g99
I11
ssg60
(dp157
g99
I11
ssg82
(dp158
g99
I11
ssg44
(dp159
g99
I11
ssS'Middle East'
p160
(dp161
g99
I11
ssg86
(dp162
g99
I11
ssg48
(dp163
g99
I11
ssg114
(dp164
g99
I11
ssg52
(dp165
g99
I11
sssg22
(dp166
g56
(dp167
g99
I11
ssg38
(dp168
g99
I11
ssg40
(dp169
g99
I11
ssS'Southern Europe'
p170
g150
sS'Western Europe'
p171
(dp172
g99
I11
ssg66
(dp173
g99
I11
sssg24
(dp174
g10
g111
sg72
(dp175
sg76
(dp176
g99
I11
ssg84
(dp177
sg42
(dp178
g99
I11
ssg60
(dp179
g99
I11
ssg82
(dp180
g99
I11
ssS'Southern Europe'
p181
g151
sg20
g161
sg44
(dp182
g99
I11
ssg86
(dp183
g99
I11
ssg48
(dp184
g99
I11
ssg114
(dp185
g99
I11
ssg66
(dp186
sg52
(dp187
g99
I11
sssg26
(dp188
g8
g102
sg30
(dp189
g99
I11
ssg32
(dp190
g99
I11
sssg28
(dp191
g14
g135
sg36
(dp192
g99
I11
ssS'Eastern Canada'
p193
(dp194
g99
I11
ssg62
(dp195
g99
I11
ssS'Eastern United States'
p196
g144
sg70
(dp197
g99
I11
ssg132
(dp198
g99
I11
ssg46
(dp199
g99
I11
sssg30
(dp200
g8
g98
sg32
(dp201
g99
I11
ssg26
g189
ssg32
(dp202
g80
(dp203
sg8
g100
sg30
g201
sg26
g190
ssg34
(dp204
g84
(dp205
g99
I11
ssg12
g121
sg72
(dp206
g99
I11
ssg50
(dp207
g99
I11
ssg78
(dp208
g99
I11
sssg36
(dp209
g14
g128
sg193
(dp210
g99
I11
ssg62
(dp211
g99
I11
ssg196
g138
sg70
(dp212
g99
I11
ssg132
(dp213
g99
I11
ssS'Western United States'
p214
(dp215
g99
I11
ssg28
g192
ssg38
(dp216
g56
(dp217
g99
I11
ssg40
(dp218
g99
I11
ssg18
g147
sg22
g168
sg88
(dp219
g99
I11
ssg66
(dp220
g99
I11
sssg40
(dp221
g70
(dp222
sg56
(dp223
g99
I11
ssS'Northern Europe'
p224
g218
sg170
g148
sg22
g169
sg171
(dp225
g99
I11
ssg66
(dp226
g99
I11
sssg42
(dp227
g10
g105
sg76
(dp228
g99
I11
ssg60
(dp229
g99
I11
ssg82
(dp230
g99
I11
ssg20
g156
sg44
(dp231
g99
I11
ssg160
g178
sg86
(dp232
g99
I11
ssg48
(dp233
g99
I11
ssg114
(dp234
g99
I11
ssg52
(dp235
g99
I11
sssg44
(dp236
g10
g109
sg76
(dp237
g99
I11
ssg42
g231
sg60
(dp238
g99
I11
ssg82
(dp239
g99
I11
ssg20
g159
sg160
g182
sg86
(dp240
g99
I11
ssg48
(dp241
g99
I11
ssg64
(dp242
g99
I11
ssg52
(dp243
g99
I11
sssg46
(dp244
g14
g134
sg137
g215
sg16
g143
sg62
(dp245
g99
I11
ssg80
(dp246
g99
I11
ssg70
(dp247
g99
I11
ssg193
(dp248
g99
I11
ssg28
g199
ssg48
(dp249
g10
g113
sg76
(dp250
g99
I11
ssg42
g233
sg60
(dp251
g99
I11
ssg82
(dp252
g99
I11
ssg20
g163
sg44
g241
sg160
g184
sg86
(dp253
g99
I11
ssg114
(dp254
g99
I11
ssg66
(dp255
sg52
(dp256
g99
I11
sssg50
(dp257
g8
g101
sg12
g124
sg72
(dp258
g99
I11
ssS'South Africa'
p259
(dp260
g99
I11
ssg84
(dp261
g99
I11
ssg88
(dp262
sg34
g207
ssg52
(dp263
g10
g117
sg76
(dp264
g99
I11
ssg42
g235
sg60
(dp265
g99
I11
ssg82
(dp266
g99
I11
ssg20
g165
sg44
g243
sg160
g187
sg86
(dp267
g99
I11
ssg48
g256
sg114
(dp268
g99
I11
sssg54
(dp269
S'Eastern Australia'
p270
(dp271
g99
I11
ssg64
(dp272
sg74
(dp273
g99
I11
ssg68
(dp274
g99
I11
sssg56
(dp275
g38
g217
sg40
g223
sg170
g146
sg22
g167
sg171
(dp276
g99
I11
ssg66
(dp277
g99
I11
sssg58
(dp278
g14
g129
sg137
g210
sg16
g139
sg62
(dp279
g99
I11
ssg132
(dp280
g99
I11
ssg70
(dp281
g99
I11
ssg214
g248
sg28
g194
ssg60
(dp282
g10
g106
sg76
(dp283
g99
I11
ssg42
g229
sg82
(dp284
g99
I11
ssg20
g157
sg44
g238
sg160
g179
sg86
(dp285
g99
I11
ssg48
g251
sg114
(dp286
g99
I11
ssg52
g265
ssg62
(dp287
g14
g130
sg36
g211
sg76
(dp288
sg193
g279
sg196
g140
sg70
(dp289
g99
I11
ssg132
(dp290
g99
I11
ssg214
g245
sg28
g195
ssg64
(dp291
g10
g115
sg60
g286
sg76
(dp292
g99
I11
ssg42
g234
sg54
g272
sg82
(dp293
g99
I11
ssg20
g164
sg44
g242
sg160
g185
sg86
(dp294
g99
I11
ssg48
g254
sg52
g268
ssg66
(dp295
g10
g116
sg56
g277
sg38
g220
sg40
g226
sg18
g153
sg149
g173
sg110
g186
sg48
g255
sg171
(dp296
g99
I11
sssg68
(dp297
g54
g274
sg74
(dp298
g99
I11
ssg90
(dp299
g99
I11
sssg70
(dp300
g14
g127
sg36
g212
sg58
g281
sg40
g222
sg62
g289
sg196
g142
sg132
(dp301
g99
I11
ssg214
g247
sg28
g197
ssg72
(dp302
g12
g122
sg78
(dp303
g99
I11
ssg84
(dp304
g99
I11
ssg50
g258
sg24
g175
sg34
g206
ssg74
(dp305
g68
g298
sg54
g273
sg90
(dp306
g99
I11
sssg76
(dp307
g10
g104
sg42
g228
sg60
g283
sg82
(dp308
g99
I11
ssg62
g288
sg20
g155
sg44
g237
sg160
g176
sg86
(dp309
g99
I11
ssg48
g250
sg114
g292
sg52
g264
ssg78
(dp310
g84
(dp311
g99
I11
ssg12
g125
sg72
g303
sg34
g208
sg123
g260
ssg80
(dp312
g14
g133
sg137
g213
sg16
g141
sg62
g290
sg193
g280
sg70
g301
sg46
g246
sg28
g198
sg32
g203
ssg82
(dp313
g10
g107
sg76
g308
sg42
g230
sg60
g284
sg20
g158
sg44
g239
sg110
g180
sg86
(dp314
g99
I11
ssg48
g252
sg64
g293
sg52
g266
ssg84
(dp315
g12
g119
sg72
g304
sg259
g311
sg50
g261
sg110
g177
sg120
g205
ssg86
(dp316
g10
g112
sg76
g309
sg42
g232
sg60
g285
sg82
g314
sg20
g162
sg44
g240
sg160
g183
sg48
g253
sg114
g294
sg52
g267
ssg88
(dp317
g56
g276
sg38
g219
sg40
g225
sg18
g152
sg66
g296
sg149
g172
sg50
g262
ssg90
(dp318
g54
g271
sg74
g306
sg68
g299
sssS'graph'
p319
(dp320
sS'adjlist_dict_factory'
p321
g93
sS'adj'
p322
g96
sb.